
test.elf:     file format elf32-littleriscv


Disassembly of section .vectors:

00100000 <_vectors_start>:
  100000:	3420006f          	j	100342 <default_exc_handler>
  100004:	33e0006f          	j	100342 <default_exc_handler>
  100008:	33a0006f          	j	100342 <default_exc_handler>
  10000c:	3360006f          	j	100342 <default_exc_handler>
  100010:	3320006f          	j	100342 <default_exc_handler>
  100014:	32e0006f          	j	100342 <default_exc_handler>
  100018:	32a0006f          	j	100342 <default_exc_handler>
  10001c:	32a0006f          	j	100346 <timer_handler>
  100020:	3220006f          	j	100342 <default_exc_handler>
  100024:	31e0006f          	j	100342 <default_exc_handler>
  100028:	31a0006f          	j	100342 <default_exc_handler>
  10002c:	3160006f          	j	100342 <default_exc_handler>
  100030:	3120006f          	j	100342 <default_exc_handler>
  100034:	30e0006f          	j	100342 <default_exc_handler>
  100038:	30a0006f          	j	100342 <default_exc_handler>
  10003c:	3060006f          	j	100342 <default_exc_handler>
  100040:	3020006f          	j	100342 <default_exc_handler>
  100044:	2fe0006f          	j	100342 <default_exc_handler>
  100048:	2fa0006f          	j	100342 <default_exc_handler>
  10004c:	2f60006f          	j	100342 <default_exc_handler>
  100050:	2f20006f          	j	100342 <default_exc_handler>
  100054:	2ee0006f          	j	100342 <default_exc_handler>
  100058:	2ea0006f          	j	100342 <default_exc_handler>
  10005c:	2e60006f          	j	100342 <default_exc_handler>
  100060:	2e20006f          	j	100342 <default_exc_handler>
  100064:	2de0006f          	j	100342 <default_exc_handler>
  100068:	2da0006f          	j	100342 <default_exc_handler>
  10006c:	2d60006f          	j	100342 <default_exc_handler>
  100070:	2d20006f          	j	100342 <default_exc_handler>
  100074:	2ce0006f          	j	100342 <default_exc_handler>
  100078:	2ca0006f          	j	100342 <default_exc_handler>
  10007c:	0000                	.insn	2, 0x0000
  10007e:	0000                	.insn	2, 0x0000
  100080:	2ca0006f          	j	10034a <reset_handler>

Disassembly of section .text:

00100084 <putchar>:
  100084:	0ff57793          	zext.b	a5,a0
  100088:	00020737          	lui	a4,0x20
  10008c:	c31c                	sw	a5,0(a4)
  10008e:	8082                	ret

00100090 <puts>:
  100090:	00020737          	lui	a4,0x20
  100094:	00054783          	lbu	a5,0(a0)
  100098:	e399                	bnez	a5,10009e <puts+0xe>
  10009a:	4501                	li	a0,0
  10009c:	8082                	ret
  10009e:	0505                	addi	a0,a0,1
  1000a0:	c31c                	sw	a5,0(a4)
  1000a2:	bfcd                	j	100094 <puts+0x4>

001000a4 <puthex>:
  1000a4:	4721                	li	a4,8
  1000a6:	4625                	li	a2,9
  1000a8:	000206b7          	lui	a3,0x20
  1000ac:	01c55793          	srli	a5,a0,0x1c
  1000b0:	00f66963          	bltu	a2,a5,1000c2 <puthex+0x1e>
  1000b4:	03078793          	addi	a5,a5,48
  1000b8:	c29c                	sw	a5,0(a3)
  1000ba:	177d                	addi	a4,a4,-1 # 1ffff <_stack_len+0x17fff>
  1000bc:	0512                	slli	a0,a0,0x4
  1000be:	f77d                	bnez	a4,1000ac <puthex+0x8>
  1000c0:	8082                	ret
  1000c2:	03778793          	addi	a5,a5,55
  1000c6:	bfcd                	j	1000b8 <puthex+0x14>

001000c8 <sim_halt>:
  1000c8:	000207b7          	lui	a5,0x20
  1000cc:	4705                	li	a4,1
  1000ce:	c798                	sw	a4,8(a5)
  1000d0:	8082                	ret

001000d2 <pcount_reset>:
  1000d2:	b0201073          	csrw	minstret,zero
  1000d6:	b0001073          	csrw	mcycle,zero
  1000da:	b0301073          	csrw	mhpmcounter3,zero
  1000de:	b0401073          	csrw	mhpmcounter4,zero
  1000e2:	b0501073          	csrw	mhpmcounter5,zero
  1000e6:	b0601073          	csrw	mhpmcounter6,zero
  1000ea:	b0701073          	csrw	mhpmcounter7,zero
  1000ee:	b0801073          	csrw	mhpmcounter8,zero
  1000f2:	b0901073          	csrw	mhpmcounter9,zero
  1000f6:	b0a01073          	csrw	mhpmcounter10,zero
  1000fa:	b0b01073          	csrw	mhpmcounter11,zero
  1000fe:	b0c01073          	csrw	mhpmcounter12,zero
  100102:	b0d01073          	csrw	mhpmcounter13,zero
  100106:	b0e01073          	csrw	mhpmcounter14,zero
  10010a:	b0f01073          	csrw	mhpmcounter15,zero
  10010e:	b1001073          	csrw	mhpmcounter16,zero
  100112:	b1101073          	csrw	mhpmcounter17,zero
  100116:	b1201073          	csrw	mhpmcounter18,zero
  10011a:	b1301073          	csrw	mhpmcounter19,zero
  10011e:	b1401073          	csrw	mhpmcounter20,zero
  100122:	b1501073          	csrw	mhpmcounter21,zero
  100126:	b1601073          	csrw	mhpmcounter22,zero
  10012a:	b1701073          	csrw	mhpmcounter23,zero
  10012e:	b1801073          	csrw	mhpmcounter24,zero
  100132:	b1901073          	csrw	mhpmcounter25,zero
  100136:	b1a01073          	csrw	mhpmcounter26,zero
  10013a:	b1b01073          	csrw	mhpmcounter27,zero
  10013e:	b1c01073          	csrw	mhpmcounter28,zero
  100142:	b1d01073          	csrw	mhpmcounter29,zero
  100146:	b1e01073          	csrw	mhpmcounter30,zero
  10014a:	b1f01073          	csrw	mhpmcounter31,zero
  10014e:	b8201073          	csrw	minstreth,zero
  100152:	b8001073          	csrw	mcycleh,zero
  100156:	b8301073          	csrw	mhpmcounter3h,zero
  10015a:	b8401073          	csrw	mhpmcounter4h,zero
  10015e:	b8501073          	csrw	mhpmcounter5h,zero
  100162:	b8601073          	csrw	mhpmcounter6h,zero
  100166:	b8701073          	csrw	mhpmcounter7h,zero
  10016a:	b8801073          	csrw	mhpmcounter8h,zero
  10016e:	b8901073          	csrw	mhpmcounter9h,zero
  100172:	b8a01073          	csrw	mhpmcounter10h,zero
  100176:	b8b01073          	csrw	mhpmcounter11h,zero
  10017a:	b8c01073          	csrw	mhpmcounter12h,zero
  10017e:	b8d01073          	csrw	mhpmcounter13h,zero
  100182:	b8e01073          	csrw	mhpmcounter14h,zero
  100186:	b8f01073          	csrw	mhpmcounter15h,zero
  10018a:	b9001073          	csrw	mhpmcounter16h,zero
  10018e:	b9101073          	csrw	mhpmcounter17h,zero
  100192:	b9201073          	csrw	mhpmcounter18h,zero
  100196:	b9301073          	csrw	mhpmcounter19h,zero
  10019a:	b9401073          	csrw	mhpmcounter20h,zero
  10019e:	b9501073          	csrw	mhpmcounter21h,zero
  1001a2:	b9601073          	csrw	mhpmcounter22h,zero
  1001a6:	b9701073          	csrw	mhpmcounter23h,zero
  1001aa:	b9801073          	csrw	mhpmcounter24h,zero
  1001ae:	b9901073          	csrw	mhpmcounter25h,zero
  1001b2:	b9a01073          	csrw	mhpmcounter26h,zero
  1001b6:	b9b01073          	csrw	mhpmcounter27h,zero
  1001ba:	b9c01073          	csrw	mhpmcounter28h,zero
  1001be:	b9d01073          	csrw	mhpmcounter29h,zero
  1001c2:	b9e01073          	csrw	mhpmcounter30h,zero
  1001c6:	b9f01073          	csrw	mhpmcounter31h,zero
  1001ca:	8082                	ret

001001cc <get_mepc>:
  1001cc:	34102573          	csrr	a0,mepc
  1001d0:	8082                	ret

001001d2 <get_mcause>:
  1001d2:	34202573          	csrr	a0,mcause
  1001d6:	8082                	ret

001001d8 <get_mtval>:
  1001d8:	34302573          	csrr	a0,mtval
  1001dc:	8082                	ret

001001de <simple_exc_handler>:
  1001de:	1141                	addi	sp,sp,-16
  1001e0:	00000517          	auipc	a0,0x0
  1001e4:	1f850513          	addi	a0,a0,504 # 1003d8 <main+0xe>
  1001e8:	c606                	sw	ra,12(sp)
  1001ea:	355d                	jal	100090 <puts>
  1001ec:	00000517          	auipc	a0,0x0
  1001f0:	1fc50513          	addi	a0,a0,508 # 1003e8 <main+0x1e>
  1001f4:	3d71                	jal	100090 <puts>
  1001f6:	00000517          	auipc	a0,0x0
  1001fa:	20250513          	addi	a0,a0,514 # 1003f8 <main+0x2e>
  1001fe:	3d49                	jal	100090 <puts>
  100200:	34102573          	csrr	a0,mepc
  100204:	3545                	jal	1000a4 <puthex>
  100206:	00000517          	auipc	a0,0x0
  10020a:	1fe50513          	addi	a0,a0,510 # 100404 <main+0x3a>
  10020e:	3549                	jal	100090 <puts>
  100210:	34202573          	csrr	a0,mcause
  100214:	3d41                	jal	1000a4 <puthex>
  100216:	00000517          	auipc	a0,0x0
  10021a:	1fa50513          	addi	a0,a0,506 # 100410 <main+0x46>
  10021e:	3d8d                	jal	100090 <puts>
  100220:	34302573          	csrr	a0,mtval
  100224:	3541                	jal	1000a4 <puthex>
  100226:	000207b7          	lui	a5,0x20
  10022a:	4729                	li	a4,10
  10022c:	c398                	sw	a4,0(a5)
  10022e:	4705                	li	a4,1
  100230:	c798                	sw	a4,8(a5)
  100232:	a001                	j	100232 <simple_exc_handler+0x54>

00100234 <timer_disable>:
  100234:	08000793          	li	a5,128
  100238:	3047b073          	csrc	mie,a5
  10023c:	8082                	ret

0010023e <timer_read>:
  10023e:	000306b7          	lui	a3,0x30
  100242:	00468793          	addi	a5,a3,4 # 30004 <tohost+0xfffc>
  100246:	4398                	lw	a4,0(a5)
  100248:	4288                	lw	a0,0(a3)
  10024a:	438c                	lw	a1,0(a5)
  10024c:	fee59de3          	bne	a1,a4,100246 <timer_read+0x8>
  100250:	8082                	ret

00100252 <timecmp_update>:
  100252:	000307b7          	lui	a5,0x30
  100256:	577d                	li	a4,-1
  100258:	c798                	sw	a4,8(a5)
  10025a:	c7cc                	sw	a1,12(a5)
  10025c:	c788                	sw	a0,8(a5)
  10025e:	8082                	ret

00100260 <timer_enable>:
  100260:	1141                	addi	sp,sp,-16
  100262:	c606                	sw	ra,12(sp)
  100264:	c422                	sw	s0,8(sp)
  100266:	c226                	sw	s1,4(sp)
  100268:	4681                	li	a3,0
  10026a:	00000797          	auipc	a5,0x0
  10026e:	1be78793          	addi	a5,a5,446 # 100428 <time_elapsed>
  100272:	c394                	sw	a3,0(a5)
  100274:	4701                	li	a4,0
  100276:	c3d8                	sw	a4,4(a5)
  100278:	00000797          	auipc	a5,0x0
  10027c:	1a878793          	addi	a5,a5,424 # 100420 <time_increment>
  100280:	842a                	mv	s0,a0
  100282:	84ae                	mv	s1,a1
  100284:	c388                	sw	a0,0(a5)
  100286:	c3cc                	sw	a1,4(a5)
  100288:	3f5d                	jal	10023e <timer_read>
  10028a:	9522                	add	a0,a0,s0
  10028c:	00853433          	sltu	s0,a0,s0
  100290:	95a6                	add	a1,a1,s1
  100292:	95a2                	add	a1,a1,s0
  100294:	3f7d                	jal	100252 <timecmp_update>
  100296:	08000793          	li	a5,128
  10029a:	3047a073          	csrs	mie,a5
  10029e:	47a1                	li	a5,8
  1002a0:	3007a073          	csrs	mstatus,a5
  1002a4:	40b2                	lw	ra,12(sp)
  1002a6:	4422                	lw	s0,8(sp)
  1002a8:	4492                	lw	s1,4(sp)
  1002aa:	0141                	addi	sp,sp,16
  1002ac:	8082                	ret

001002ae <get_elapsed_time>:
  1002ae:	00000797          	auipc	a5,0x0
  1002b2:	17a78793          	addi	a5,a5,378 # 100428 <time_elapsed>
  1002b6:	4388                	lw	a0,0(a5)
  1002b8:	43cc                	lw	a1,4(a5)
  1002ba:	8082                	ret

001002bc <simple_timer_handler>:
  1002bc:	715d                	addi	sp,sp,-80
  1002be:	d03e                	sw	a5,32(sp)
  1002c0:	00000797          	auipc	a5,0x0
  1002c4:	16078793          	addi	a5,a5,352 # 100420 <time_increment>
  1002c8:	de22                	sw	s0,60(sp)
  1002ca:	4380                	lw	s0,0(a5)
  1002cc:	dc26                	sw	s1,56(sp)
  1002ce:	43c4                	lw	s1,4(a5)
  1002d0:	d632                	sw	a2,44(sp)
  1002d2:	c686                	sw	ra,76(sp)
  1002d4:	c496                	sw	t0,72(sp)
  1002d6:	c29a                	sw	t1,68(sp)
  1002d8:	c09e                	sw	t2,64(sp)
  1002da:	d436                	sw	a3,40(sp)
  1002dc:	d23a                	sw	a4,36(sp)
  1002de:	ce42                	sw	a6,28(sp)
  1002e0:	cc46                	sw	a7,24(sp)
  1002e2:	ca72                	sw	t3,20(sp)
  1002e4:	c876                	sw	t4,16(sp)
  1002e6:	c67a                	sw	t5,12(sp)
  1002e8:	c47e                	sw	t6,8(sp)
  1002ea:	da2a                	sw	a0,52(sp)
  1002ec:	d82e                	sw	a1,48(sp)
  1002ee:	3f81                	jal	10023e <timer_read>
  1002f0:	9522                	add	a0,a0,s0
  1002f2:	00853433          	sltu	s0,a0,s0
  1002f6:	95a6                	add	a1,a1,s1
  1002f8:	95a2                	add	a1,a1,s0
  1002fa:	3fa1                	jal	100252 <timecmp_update>
  1002fc:	00000597          	auipc	a1,0x0
  100300:	12c58593          	addi	a1,a1,300 # 100428 <time_elapsed>
  100304:	4180                	lw	s0,0(a1)
  100306:	41c4                	lw	s1,4(a1)
  100308:	40b6                	lw	ra,76(sp)
  10030a:	00140513          	addi	a0,s0,1
  10030e:	00853633          	sltu	a2,a0,s0
  100312:	5472                	lw	s0,60(sp)
  100314:	009607b3          	add	a5,a2,s1
  100318:	c188                	sw	a0,0(a1)
  10031a:	c1dc                	sw	a5,4(a1)
  10031c:	42a6                	lw	t0,72(sp)
  10031e:	4316                	lw	t1,68(sp)
  100320:	4386                	lw	t2,64(sp)
  100322:	54e2                	lw	s1,56(sp)
  100324:	5552                	lw	a0,52(sp)
  100326:	55c2                	lw	a1,48(sp)
  100328:	5632                	lw	a2,44(sp)
  10032a:	56a2                	lw	a3,40(sp)
  10032c:	5712                	lw	a4,36(sp)
  10032e:	5782                	lw	a5,32(sp)
  100330:	4872                	lw	a6,28(sp)
  100332:	48e2                	lw	a7,24(sp)
  100334:	4e52                	lw	t3,20(sp)
  100336:	4ec2                	lw	t4,16(sp)
  100338:	4f32                	lw	t5,12(sp)
  10033a:	4fa2                	lw	t6,8(sp)
  10033c:	6161                	addi	sp,sp,80
  10033e:	30200073          	mret

00100342 <default_exc_handler>:
  100342:	e9dff06f          	j	1001de <simple_exc_handler>

00100346 <timer_handler>:
  100346:	f77ff06f          	j	1002bc <simple_timer_handler>

0010034a <reset_handler>:
  10034a:	00000093          	li	ra,0
  10034e:	8106                	mv	sp,ra
  100350:	8186                	mv	gp,ra
  100352:	8206                	mv	tp,ra
  100354:	8286                	mv	t0,ra
  100356:	8306                	mv	t1,ra
  100358:	8386                	mv	t2,ra
  10035a:	8406                	mv	s0,ra
  10035c:	8486                	mv	s1,ra
  10035e:	8506                	mv	a0,ra
  100360:	8586                	mv	a1,ra
  100362:	8606                	mv	a2,ra
  100364:	8686                	mv	a3,ra
  100366:	8706                	mv	a4,ra
  100368:	8786                	mv	a5,ra
  10036a:	8806                	mv	a6,ra
  10036c:	8886                	mv	a7,ra
  10036e:	8906                	mv	s2,ra
  100370:	8986                	mv	s3,ra
  100372:	8a06                	mv	s4,ra
  100374:	8a86                	mv	s5,ra
  100376:	8b06                	mv	s6,ra
  100378:	8b86                	mv	s7,ra
  10037a:	8c06                	mv	s8,ra
  10037c:	8c86                	mv	s9,ra
  10037e:	8d06                	mv	s10,ra
  100380:	8d86                	mv	s11,ra
  100382:	8e06                	mv	t3,ra
  100384:	8e86                	mv	t4,ra
  100386:	8f06                	mv	t5,ra
  100388:	8f86                	mv	t6,ra
  10038a:	00038117          	auipc	sp,0x38
  10038e:	c7610113          	addi	sp,sp,-906 # 138000 <_stack_start>

00100392 <_start>:
  100392:	00000d17          	auipc	s10,0x0
  100396:	08ed0d13          	addi	s10,s10,142 # 100420 <time_increment>
  10039a:	00000d97          	auipc	s11,0x0
  10039e:	096d8d93          	addi	s11,s11,150 # 100430 <_bss_end>
  1003a2:	01bd5763          	bge	s10,s11,1003b0 <main_entry>

001003a6 <zero_loop>:
  1003a6:	000d2023          	sw	zero,0(s10)
  1003aa:	0d11                	addi	s10,s10,4
  1003ac:	ffaddde3          	bge	s11,s10,1003a6 <zero_loop>

001003b0 <main_entry>:
  1003b0:	4501                	li	a0,0
  1003b2:	4581                	li	a1,0
  1003b4:	016000ef          	jal	1003ca <main>
  1003b8:	000202b7          	lui	t0,0x20
  1003bc:	02a1                	addi	t0,t0,8 # 20008 <tohost>
  1003be:	4305                	li	t1,1
  1003c0:	0062a023          	sw	t1,0(t0)

001003c4 <sleep_loop>:
  1003c4:	10500073          	wfi
  1003c8:	bff5                	j	1003c4 <sleep_loop>

001003ca <main>:
  1003ca:	00000797          	auipc	a5,0x0
  1003ce:	0527a783          	lw	a5,82(a5) # 10041c <result>
  1003d2:	4729                	li	a4,10
  1003d4:	c398                	sw	a4,0(a5)
  1003d6:	a001                	j	1003d6 <main+0xc>
